target datalayout = "e-m:e-p270:32:32-p271:32:32-p272:64:64-i64:64-i128:128-f80:128-n8:16:32:64-S128"
target triple = "x86_64-pc-linux-gnu"

@proto_register_gdsdb.ett = internal global [2 x ptr] [ptr @ett_gdsdb, ptr @ett_gdsdb_connect_pref], align 16
@.str.126 = private unnamed_addr constant [38 x i8] c"Firebird SQL Database Remote Protocol\00", align 1
@.str.127 = private unnamed_addr constant [13 x i8] c"FB/IB GDS DB\00", align 1
@.str.128 = private unnamed_addr constant [6 x i8] c"gdsdb\00", align 1
@proto_gdsdb = internal global i32 0, align 4
@gdsdb_handle = internal global ptr null, align 8

; Function Attrs: nounwind uwtable
define hidden void @proto_register_gdsdb() #0 {
  %1 = alloca ptr, align 8
  %2 = call i32 @proto_register_protocol(ptr noundef @.str.126, ptr noundef @.str.127, ptr noundef @.str.128)
  store i32 %2, ptr @proto_gdsdb, align 4
  %3 = load i32, ptr @proto_gdsdb, align 4
  call void @proto_register_field_array(i32 noundef %3, ptr noundef @proto_register_gdsdb.hf, i32 noundef 71)
  call void @proto_register_subtree_array(ptr noundef @proto_register_gdsdb.ett, i32 noundef 2)
  %4 = load i32, ptr @proto_gdsdb, align 4
  %5 = call ptr @expert_register_protocol(i32 noundef %4)
  store ptr %5, ptr %1, align 8
  %6 = load ptr, ptr %1, align 8
  call void @expert_register_field_array(ptr noundef %6, ptr noundef @proto_register_gdsdb.ei, i32 noundef 1)
  %7 = load i32, ptr @proto_gdsdb, align 4
  %8 = call ptr @register_dissector(ptr noundef @.str.128, ptr noundef @dissect_gdsdb, i32 noundef %7)
  store ptr %8, ptr @gdsdb_handle, align 8
  ret void
}