; Function Attrs: nounwind uwtable
define hidden void @proto_register_gdsdb() local_unnamed_addr #0 {
  %1 = tail call i32 @proto_register_protocol(ptr noundef nonnull @.str.126, ptr noundef nonnull @.str.127, ptr noundef nonnull @.str.128) #3
  store i32 %1, ptr @proto_gdsdb, align 4
  tail call void @proto_register_field_array(i32 noundef %1, ptr noundef nonnull @proto_register_gdsdb.hf, i32 noundef 71) #3
  tail call void @proto_register_subtree_array(ptr noundef nonnull @proto_register_gdsdb.ett, i32 noundef 2) #3
  %2 = load i32, ptr @proto_gdsdb, align 4
  %3 = tail call ptr @expert_register_protocol(i32 noundef %2) #3
  tail call void @expert_register_field_array(ptr noundef %3, ptr noundef nonnull @proto_register_gdsdb.ei, i32 noundef 1) #3
  %4 = load i32, ptr @proto_gdsdb, align 4
  %5 = tail call ptr @register_dissector(ptr noundef nonnull @.str.128, ptr noundef nonnull @dissect_gdsdb, i32 noundef %4) #3
  store ptr %5, ptr @gdsdb_handle, align 8
  ret void
}